target datalayout = "e-m:e-p270:32:32-p271:32:32-p272:64:64-i64:64-i128:128-f80:128-n8:16:32:64-S128"
target triple = "x86_64-pc-linux-gnu"

%struct.psa_storage_info_t = type { i32, i32 }
%struct.psa_persistent_key_storage_format = type { [8 x i8], [4 x i8], [4 x i8], [2 x i8], [2 x i8], [12 x i8], [4 x i8], [0 x i8] }
%struct.psa_key_attributes_s = type { i16, i16, i32, %struct.psa_key_policy_s, i32 }
%struct.psa_key_policy_s = type { i32, i32, i32 }

@.str = private unnamed_addr constant [8 x i8] c"PSA\00KEY\00", align 1

; Function Attrs: nounwind uwtable
define hidden i32 @psa_is_key_present_in_storage(i32 noundef %0) #0 {
  %2 = alloca i32, align 4
  %3 = alloca i32, align 4
  %4 = alloca i32, align 4
  %5 = alloca i64, align 8
  %6 = alloca %struct.psa_storage_info_t, align 4
  %7 = alloca i32, align 4
  store i32 %0, ptr %3, align 4, !tbaa !3
  call void @llvm.lifetime.start.p0(i64 4, ptr %4) #7
  call void @llvm.lifetime.start.p0(i64 8, ptr %5) #7
  %8 = load i32, ptr %3, align 4, !tbaa !3
  %9 = call i64 @psa_its_identifier_of_slot(i32 noundef %8)
  store i64 %9, ptr %5, align 8, !tbaa !7
  call void @llvm.lifetime.start.p0(i64 8, ptr %6) #7
  %10 = load i64, ptr %5, align 8, !tbaa !7
  %11 = call i32 @psa_its_get_info(i64 noundef %10, ptr noundef %6)
  store i32 %11, ptr %4, align 4, !tbaa !3
  %12 = load i32, ptr %4, align 4, !tbaa !3
  %13 = icmp eq i32 %12, -140
  br i1 %13, label %14, label %15

14:                                               ; preds = %1
  store i32 0, ptr %2, align 4
  store i32 1, ptr %7, align 4
  br label %16

15:                                               ; preds = %1
  store i32 1, ptr %2, align 4
  store i32 1, ptr %7, align 4
  br label %16

16:                                               ; preds = %15, %14
  call void @llvm.lifetime.end.p0(i64 8, ptr %6) #7
  call void @llvm.lifetime.end.p0(i64 8, ptr %5) #7
  call void @llvm.lifetime.end.p0(i64 4, ptr %4) #7
  %17 = load i32, ptr %2, align 4
  ret i32 %17
}

; Function Attrs: nounwind uwtable
define internal i64 @psa_its_identifier_of_slot(i32 noundef %0) #0 {
  %2 = alloca i32, align 4
  store i32 %0, ptr %2, align 4, !tbaa !3
  %3 = load i32, ptr %2, align 4, !tbaa !3
  %4 = zext i32 %3 to i64
  ret i64 %4
}

; Function Attrs: alwaysinline nounwind uwtable
define internal void @mbedtls_put_unaligned_uint16(ptr noundef %0, i16 noundef zeroext %1) #4 {
  %3 = alloca ptr, align 8
  %4 = alloca i16, align 2
  store ptr %0, ptr %3, align 8, !tbaa !14
  store i16 %1, ptr %4, align 2, !tbaa !24
  %5 = load ptr, ptr %3, align 8, !tbaa !14
  call void @llvm.memcpy.p0.p0.i64(ptr align 1 %5, ptr align 2 %4, i64 2, i1 false)
  ret void
}

; Function Attrs: alwaysinline nounwind uwtable
define internal void @mbedtls_put_unaligned_uint32(ptr noundef %0, i32 noundef %1) #4 {
  %3 = alloca ptr, align 8
  %4 = alloca i32, align 4
  store ptr %0, ptr %3, align 8, !tbaa !14
  store i32 %1, ptr %4, align 4, !tbaa !3
  %5 = load ptr, ptr %3, align 8, !tbaa !14
  call void @llvm.memcpy.p0.p0.i64(ptr align 1 %5, ptr align 4 %4, i64 4, i1 false)
  ret void
}

; Function Attrs: nounwind uwtable
define internal i32 @psa_crypto_storage_store(i32 noundef %0, ptr noundef %1, i64 noundef %2) #0 {
  %4 = alloca i32, align 4
  %5 = alloca i32, align 4
  %6 = alloca ptr, align 8
  %7 = alloca i64, align 8
  %8 = alloca i32, align 4
  %9 = alloca i64, align 8
  %10 = alloca %struct.psa_storage_info_t, align 4
  %11 = alloca i32, align 4
  store i32 %0, ptr %5, align 4, !tbaa !3
  store ptr %1, ptr %6, align 8, !tbaa !9
  store i64 %2, ptr %7, align 8, !tbaa !7
  call void @llvm.lifetime.start.p0(i64 4, ptr %8) #7
  call void @llvm.lifetime.start.p0(i64 8, ptr %9) #7
  %12 = load i32, ptr %5, align 4, !tbaa !3
  %13 = call i64 @psa_its_identifier_of_slot(i32 noundef %12)
  store i64 %13, ptr %9, align 8, !tbaa !7
  call void @llvm.lifetime.start.p0(i64 8, ptr %10) #7
  %14 = load i32, ptr %5, align 4, !tbaa !3
  %15 = call i32 @psa_is_key_present_in_storage(i32 noundef %14)
  %16 = icmp eq i32 %15, 1
  br i1 %16, label %17, label %18

17:                                               ; preds = %3
  store i32 -139, ptr %4, align 4
  store i32 1, ptr %11, align 4
  br label %49

18:                                               ; preds = %3
  %19 = load i64, ptr %9, align 8, !tbaa !7
  %20 = load i64, ptr %7, align 8, !tbaa !7
  %21 = trunc i64 %20 to i32
  %22 = load ptr, ptr %6, align 8, !tbaa !9
  %23 = call i32 @psa_its_set(i64 noundef %19, i32 noundef %21, ptr noundef %22, i32 noundef 0)
  store i32 %23, ptr %8, align 4, !tbaa !3
  %24 = load i32, ptr %8, align 4, !tbaa !3
  %25 = icmp ne i32 %24, 0
  br i1 %25, label %26, label %27

26:                                               ; preds = %18
  store i32 -153, ptr %4, align 4
  store i32 1, ptr %11, align 4
  br label %49

27:                                               ; preds = %18
  %28 = load i64, ptr %9, align 8, !tbaa !7
  %29 = call i32 @psa_its_get_info(i64 noundef %28, ptr noundef %10)
  store i32 %29, ptr %8, align 4, !tbaa !3
  %30 = load i32, ptr %8, align 4, !tbaa !3
  %31 = icmp ne i32 %30, 0
  br i1 %31, label %32, label %33

32:                                               ; preds = %27
  br label %41

33:                                               ; preds = %27
  %34 = getelementptr inbounds nuw %struct.psa_storage_info_t, ptr %10, i32 0, i32 0
  %35 = load i32, ptr %34, align 4, !tbaa !31
  %36 = zext i32 %35 to i64
  %37 = load i64, ptr %7, align 8, !tbaa !7
  %38 = icmp ne i64 %36, %37
  br i1 %38, label %39, label %40

39:                                               ; preds = %33
  store i32 -153, ptr %8, align 4, !tbaa !3
  br label %41

40:                                               ; preds = %33
  br label %41

41:                                               ; preds = %40, %39, %32
  %42 = load i32, ptr %8, align 4, !tbaa !3
  %43 = icmp ne i32 %42, 0
  br i1 %43, label %44, label %47

44:                                               ; preds = %41
  %45 = load i64, ptr %9, align 8, !tbaa !7
  %46 = call i32 @psa_its_remove(i64 noundef %45)
  br label %47

47:                                               ; preds = %44, %41
  %48 = load i32, ptr %8, align 4, !tbaa !3
  store i32 %48, ptr %4, align 4
  store i32 1, ptr %11, align 4
  br label %49

49:                                               ; preds = %47, %26, %17
  call void @llvm.lifetime.end.p0(i64 8, ptr %10) #7
  call void @llvm.lifetime.end.p0(i64 8, ptr %9) #7
  call void @llvm.lifetime.end.p0(i64 4, ptr %8) #7
  %50 = load i32, ptr %4, align 4
  ret i32 %50
}

; Function Attrs: nounwind uwtable
define hidden void @psa_format_key_data_for_storage(ptr noundef %0, i64 noundef %1, ptr noundef %2, ptr noundef %3) #0 {
  %5 = alloca ptr, align 8
  %6 = alloca i64, align 8
  %7 = alloca ptr, align 8
  %8 = alloca ptr, align 8
  %9 = alloca ptr, align 8
  store ptr %0, ptr %5, align 8, !tbaa !9
  store i64 %1, ptr %6, align 8, !tbaa !7
  store ptr %2, ptr %7, align 8, !tbaa !12
  store ptr %3, ptr %8, align 8, !tbaa !9
  call void @llvm.lifetime.start.p0(i64 8, ptr %9) #7
  %10 = load ptr, ptr %8, align 8, !tbaa !9
  store ptr %10, ptr %9, align 8, !tbaa !14
  %11 = load ptr, ptr %9, align 8, !tbaa !14
  %12 = getelementptr inbounds nuw %struct.psa_persistent_key_storage_format, ptr %11, i32 0, i32 0
  %13 = getelementptr inbounds [8 x i8], ptr %12, i64 0, i64 0
  call void @llvm.memcpy.p0.p0.i64(ptr align 1 %13, ptr align 1 @.str, i64 8, i1 false)
  %14 = load ptr, ptr %9, align 8, !tbaa !14
  %15 = getelementptr inbounds nuw %struct.psa_persistent_key_storage_format, ptr %14, i32 0, i32 1
  %16 = getelementptr inbounds [4 x i8], ptr %15, i64 0, i64 0
  %17 = getelementptr inbounds i8, ptr %16, i64 0
  call void @mbedtls_put_unaligned_uint32(ptr noundef %17, i32 noundef 0)
  %18 = load ptr, ptr %9, align 8, !tbaa !14
  %19 = getelementptr inbounds nuw %struct.psa_persistent_key_storage_format, ptr %18, i32 0, i32 2
  %20 = getelementptr inbounds [4 x i8], ptr %19, i64 0, i64 0
  %21 = getelementptr inbounds i8, ptr %20, i64 0
  %22 = load ptr, ptr %7, align 8, !tbaa !12
  %23 = getelementptr inbounds nuw %struct.psa_key_attributes_s, ptr %22, i32 0, i32 2
  %24 = load i32, ptr %23, align 4, !tbaa !15
  call void @mbedtls_put_unaligned_uint32(ptr noundef %21, i32 noundef %24)
  %25 = load ptr, ptr %9, align 8, !tbaa !14
  %26 = getelementptr inbounds nuw %struct.psa_persistent_key_storage_format, ptr %25, i32 0, i32 3
  %27 = getelementptr inbounds [2 x i8], ptr %26, i64 0, i64 0
  %28 = getelementptr inbounds i8, ptr %27, i64 0
  %29 = load ptr, ptr %7, align 8, !tbaa !12
  %30 = getelementptr inbounds nuw %struct.psa_key_attributes_s, ptr %29, i32 0, i32 0
  %31 = load i16, ptr %30, align 4, !tbaa !19
  call void @mbedtls_put_unaligned_uint16(ptr noundef %28, i16 noundef zeroext %31)
  %32 = load ptr, ptr %9, align 8, !tbaa !14
  %33 = getelementptr inbounds nuw %struct.psa_persistent_key_storage_format, ptr %32, i32 0, i32 4
  %34 = getelementptr inbounds [2 x i8], ptr %33, i64 0, i64 0
  %35 = getelementptr inbounds i8, ptr %34, i64 0
  %36 = load ptr, ptr %7, align 8, !tbaa !12
  %37 = getelementptr inbounds nuw %struct.psa_key_attributes_s, ptr %36, i32 0, i32 1
  %38 = load i16, ptr %37, align 2, !tbaa !20
  call void @mbedtls_put_unaligned_uint16(ptr noundef %35, i16 noundef zeroext %38)
  %39 = load ptr, ptr %9, align 8, !tbaa !14
  %40 = getelementptr inbounds nuw %struct.psa_persistent_key_storage_format, ptr %39, i32 0, i32 5
  %41 = getelementptr inbounds [12 x i8], ptr %40, i64 0, i64 0
  %42 = getelementptr inbounds i8, ptr %41, i64 0
  %43 = load ptr, ptr %7, align 8, !tbaa !12
  %44 = getelementptr inbounds nuw %struct.psa_key_attributes_s, ptr %43, i32 0, i32 3
  %45 = getelementptr inbounds nuw %struct.psa_key_policy_s, ptr %44, i32 0, i32 0
  %46 = load i32, ptr %45, align 4, !tbaa !21
  call void @mbedtls_put_unaligned_uint32(ptr noundef %42, i32 noundef %46)
  %47 = load ptr, ptr %9, align 8, !tbaa !14
  %48 = getelementptr inbounds nuw %struct.psa_persistent_key_storage_format, ptr %47, i32 0, i32 5
  %49 = getelementptr inbounds [12 x i8], ptr %48, i64 0, i64 0
  %50 = getelementptr inbounds nuw i8, ptr %49, i64 4
  %51 = load ptr, ptr %7, align 8, !tbaa !12
  %52 = getelementptr inbounds nuw %struct.psa_key_attributes_s, ptr %51, i32 0, i32 3
  %53 = getelementptr inbounds nuw %struct.psa_key_policy_s, ptr %52, i32 0, i32 1
  %54 = load i32, ptr %53, align 4, !tbaa !22
  call void @mbedtls_put_unaligned_uint32(ptr noundef %50, i32 noundef %54)
  %55 = load ptr, ptr %9, align 8, !tbaa !14
  %56 = getelementptr inbounds nuw %struct.psa_persistent_key_storage_format, ptr %55, i32 0, i32 5
  %57 = getelementptr inbounds [12 x i8], ptr %56, i64 0, i64 0
  %58 = getelementptr inbounds nuw i8, ptr %57, i64 8
  %59 = load ptr, ptr %7, align 8, !tbaa !12
  %60 = getelementptr inbounds nuw %struct.psa_key_attributes_s, ptr %59, i32 0, i32 3
  %61 = getelementptr inbounds nuw %struct.psa_key_policy_s, ptr %60, i32 0, i32 2
  %62 = load i32, ptr %61, align 4, !tbaa !23
  call void @mbedtls_put_unaligned_uint32(ptr noundef %58, i32 noundef %62)
  %63 = load ptr, ptr %9, align 8, !tbaa !14
  %64 = getelementptr inbounds nuw %struct.psa_persistent_key_storage_format, ptr %63, i32 0, i32 6
  %65 = getelementptr inbounds [4 x i8], ptr %64, i64 0, i64 0
  %66 = getelementptr inbounds i8, ptr %65, i64 0
  %67 = load i64, ptr %6, align 8, !tbaa !7
  %68 = trunc i64 %67 to i32
  call void @mbedtls_put_unaligned_uint32(ptr noundef %66, i32 noundef %68)
  %69 = load ptr, ptr %9, align 8, !tbaa !14
  %70 = getelementptr inbounds nuw %struct.psa_persistent_key_storage_format, ptr %69, i32 0, i32 7
  %71 = getelementptr inbounds [0 x i8], ptr %70, i64 0, i64 0
  %72 = load ptr, ptr %5, align 8, !tbaa !9
  %73 = load i64, ptr %6, align 8, !tbaa !7
  call void @llvm.memcpy.p0.p0.i64(ptr align 1 %71, ptr align 1 %72, i64 %73, i1 false)
  call void @llvm.lifetime.end.p0(i64 8, ptr %9) #7
  ret void
}

; Function Attrs: nounwind uwtable
define hidden i32 @psa_save_persistent_key(ptr noundef %0, ptr noundef %1, i64 noundef %2) #0 {
  %4 = alloca i32, align 4
  %5 = alloca ptr, align 8
  %6 = alloca ptr, align 8
  %7 = alloca i64, align 8
  %8 = alloca i64, align 8
  %9 = alloca ptr, align 8
  %10 = alloca i32, align 4
  %11 = alloca i32, align 4
  store ptr %0, ptr %5, align 8, !tbaa !12
  store ptr %1, ptr %6, align 8, !tbaa !9
  store i64 %2, ptr %7, align 8, !tbaa !7
  call void @llvm.lifetime.start.p0(i64 8, ptr %8) #7
  call void @llvm.lifetime.start.p0(i64 8, ptr %9) #7
  call void @llvm.lifetime.start.p0(i64 4, ptr %10) #7
  %12 = load ptr, ptr %6, align 8, !tbaa !9
  %13 = icmp eq ptr %12, null
  br i1 %13, label %17, label %14

14:                                               ; preds = %3
  %15 = load i64, ptr %7, align 8, !tbaa !7
  %16 = icmp eq i64 %15, 0
  br i1 %16, label %17, label %18

17:                                               ; preds = %14, %3
  store i32 -135, ptr %4, align 4
  store i32 1, ptr %11, align 4
  br label %44

18:                                               ; preds = %14
  %19 = load i64, ptr %7, align 8, !tbaa !7
  %20 = icmp ugt i64 %19, 8191
  br i1 %20, label %21, label %22

21:                                               ; preds = %18
  store i32 -142, ptr %4, align 4
  store i32 1, ptr %11, align 4
  br label %44

22:                                               ; preds = %18
  %23 = load i64, ptr %7, align 8, !tbaa !7
  %24 = add i64 %23, 36
  store i64 %24, ptr %8, align 8, !tbaa !7
  %25 = load i64, ptr %8, align 8, !tbaa !7
  %26 = call noalias ptr @calloc(i64 noundef 1, i64 noundef %25) #8
  store ptr %26, ptr %9, align 8, !tbaa !9
  %27 = load ptr, ptr %9, align 8, !tbaa !9
  %28 = icmp eq ptr %27, null
  br i1 %28, label %29, label %30

29:                                               ; preds = %22
  store i32 -141, ptr %4, align 4
  store i32 1, ptr %11, align 4
  br label %44

30:                                               ; preds = %22
  %31 = load ptr, ptr %6, align 8, !tbaa !9
  %32 = load i64, ptr %7, align 8, !tbaa !7
  %33 = load ptr, ptr %5, align 8, !tbaa !12
  %34 = load ptr, ptr %9, align 8, !tbaa !9
  call void @psa_format_key_data_for_storage(ptr noundef %31, i64 noundef %32, ptr noundef %33, ptr noundef %34)
  %35 = load ptr, ptr %5, align 8, !tbaa !12
  %36 = getelementptr inbounds nuw %struct.psa_key_attributes_s, ptr %35, i32 0, i32 4
  %37 = load i32, ptr %36, align 4, !tbaa !30
  %38 = load ptr, ptr %9, align 8, !tbaa !9
  %39 = load i64, ptr %8, align 8, !tbaa !7
  %40 = call i32 @psa_crypto_storage_store(i32 noundef %37, ptr noundef %38, i64 noundef %39)
  store i32 %40, ptr %10, align 4, !tbaa !3
  %41 = load ptr, ptr %9, align 8, !tbaa !9
  %42 = load i64, ptr %8, align 8, !tbaa !7
  call void @mbedtls_zeroize_and_free(ptr noundef %41, i64 noundef %42)
  %43 = load i32, ptr %10, align 4, !tbaa !3
  store i32 %43, ptr %4, align 4
  store i32 1, ptr %11, align 4
  br label %44

44:                                               ; preds = %30, %29, %21, %17
  call void @llvm.lifetime.end.p0(i64 4, ptr %10) #7
  call void @llvm.lifetime.end.p0(i64 8, ptr %9) #7
  call void @llvm.lifetime.end.p0(i64 8, ptr %8) #7
  %45 = load i32, ptr %4, align 4
  ret i32 %45
}