; Function Attrs: nounwind uwtable
define hidden i32 @psa_save_persistent_key(ptr noundef readonly captures(none) %0, ptr noundef readonly %1, i64 noundef %2) local_unnamed_addr #0 {
  %4 = alloca %struct.psa_storage_info_t, align 4
  %5 = alloca %struct.psa_storage_info_t, align 4
  %6 = icmp eq ptr %1, null
  %7 = icmp eq i64 %2, 0
  %or.cond = or i1 %6, %7
  br i1 %or.cond, label %48, label %8

8:                                                ; preds = %3
  %9 = icmp ugt i64 %2, 8191
  br i1 %9, label %48, label %10

10:                                               ; preds = %8
  %11 = add nuw nsw i64 %2, 36
  %12 = tail call noalias ptr @calloc(i64 noundef 1, i64 noundef %11) #9
  %13 = icmp eq ptr %12, null
  br i1 %13, label %48, label %14

14:                                               ; preds = %10
  store i64 25127461356393296, ptr %12, align 1
  %15 = getelementptr inbounds nuw i8, ptr %12, i64 12
  %16 = getelementptr inbounds nuw i8, ptr %0, i64 4
  %17 = load i32, ptr %16, align 4, !tbaa !3
  store i32 %17, ptr %15, align 1
  %18 = getelementptr inbounds nuw i8, ptr %12, i64 16
  %19 = load i16, ptr %0, align 4, !tbaa !10
  store i16 %19, ptr %18, align 1
  %20 = getelementptr inbounds nuw i8, ptr %12, i64 18
  %21 = getelementptr inbounds nuw i8, ptr %0, i64 2
  %22 = load i16, ptr %21, align 2, !tbaa !11
  store i16 %22, ptr %20, align 1
  %23 = getelementptr inbounds nuw i8, ptr %12, i64 20
  %24 = getelementptr inbounds nuw i8, ptr %0, i64 8
  %25 = load i32, ptr %24, align 4, !tbaa !12
  store i32 %25, ptr %23, align 1
  %26 = getelementptr inbounds nuw i8, ptr %12, i64 24
  %27 = getelementptr inbounds nuw i8, ptr %0, i64 12
  %28 = load i32, ptr %27, align 4, !tbaa !13
  store i32 %28, ptr %26, align 1
  %29 = getelementptr inbounds nuw i8, ptr %12, i64 28
  %30 = getelementptr inbounds nuw i8, ptr %0, i64 16
  %31 = load i32, ptr %30, align 4, !tbaa !14
  store i32 %31, ptr %29, align 1
  %32 = getelementptr inbounds nuw i8, ptr %12, i64 32
  %33 = trunc nuw i64 %2 to i32
  store i32 %33, ptr %32, align 1
  %34 = getelementptr inbounds nuw i8, ptr %12, i64 36
  tail call void @llvm.memcpy.p0.p0.i64(ptr nonnull align 1 %34, ptr nonnull readonly align 1 %1, i64 %2, i1 false)
  %35 = getelementptr inbounds nuw i8, ptr %0, i64 20
  %36 = load i32, ptr %35, align 4, !tbaa !20
  %37 = zext i32 %36 to i64
  call void @llvm.lifetime.start.p0(i64 8, ptr nonnull %5) #8
  call void @llvm.lifetime.start.p0(i64 8, ptr nonnull %4) #8
  %38 = call i32 @psa_its_get_info(i64 noundef %37, ptr noundef nonnull %4) #8
  %.not18.i = icmp eq i32 %38, -140
  call void @llvm.lifetime.end.p0(i64 8, ptr nonnull %4) #8
  br i1 %.not18.i, label %39, label %psa_crypto_storage_store.exit

39:                                               ; preds = %14
  %40 = trunc nuw nsw i64 %11 to i32
  %41 = call i32 @psa_its_set(i64 noundef %37, i32 noundef %40, ptr noundef nonnull %12, i32 noundef 0) #8
  %.not14.i = icmp eq i32 %41, 0
  br i1 %.not14.i, label %42, label %psa_crypto_storage_store.exit

42:                                               ; preds = %39
  %43 = call i32 @psa_its_get_info(i64 noundef %37, ptr noundef nonnull %5) #8
  %.not15.i = icmp eq i32 %43, 0
  %44 = load i32, ptr %5, align 4
  %45 = zext i32 %44 to i64
  %.not16.i = icmp eq i64 %11, %45
  %.not17.i = select i1 %.not15.i, i1 %.not16.i, i1 false
  br i1 %.not17.i, label %psa_crypto_storage_store.exit, label %46

46:                                               ; preds = %42
  %spec.select.i = select i1 %.not16.i, i32 0, i32 -153
  %.012.i = select i1 %.not15.i, i32 %spec.select.i, i32 %43
  %47 = call i32 @psa_its_remove(i64 noundef %37) #8
  br label %psa_crypto_storage_store.exit

psa_crypto_storage_store.exit:                    ; preds = %14, %39, %42, %46
  %.0.i = phi i32 [ -139, %14 ], [ -153, %39 ], [ %.012.i, %46 ], [ 0, %42 ]
  call void @llvm.lifetime.end.p0(i64 8, ptr nonnull %5) #8
  call void @mbedtls_zeroize_and_free(ptr noundef nonnull %12, i64 noundef %11) #8
  br label %48

48:                                               ; preds = %10, %8, %3, %psa_crypto_storage_store.exit
  %.0 = phi i32 [ %.0.i, %psa_crypto_storage_store.exit ], [ -135, %3 ], [ -142, %8 ], [ -141, %10 ]
  ret i32 %.0
}